target datalayout = "e-m:e-p270:32:32-p271:32:32-p272:64:64-i64:64-i128:128-f80:128-n8:16:32:64-S128"
target triple = "x86_64-pc-linux-gnu"

%struct.mbedtls_mps_reader = type { ptr, i64, i64, i64, i64, ptr, i64, i64, %union.anon }
%union.anon = type { i64 }

; Function Attrs: inlinehint nounwind uwtable
define internal i32 @mps_reader_is_producing(ptr noundef %0) #1 {
  %2 = alloca ptr, align 8
  %3 = alloca ptr, align 8
  store ptr %0, ptr %2, align 8, !tbaa !3
  call void @llvm.lifetime.start.p0(i64 8, ptr %3) #4
  %4 = load ptr, ptr %2, align 8, !tbaa !3
  %5 = getelementptr inbounds nuw %struct.mbedtls_mps_reader, ptr %4, i32 0, i32 0
  %6 = load ptr, ptr %5, align 8, !tbaa !18
  store ptr %6, ptr %3, align 8, !tbaa !8
  %7 = load ptr, ptr %3, align 8, !tbaa !8
  %8 = icmp eq ptr %7, null
  %9 = zext i1 %8 to i32
  call void @llvm.lifetime.end.p0(i64 8, ptr %3) #4
  ret i32 %9
}

; Function Attrs: inlinehint nounwind uwtable
define internal i64 @mps_reader_get_fragment_offset(ptr noundef %0) #1 {
  %2 = alloca i64, align 8
  %3 = alloca ptr, align 8
  %4 = alloca ptr, align 8
  %5 = alloca i64, align 8
  %6 = alloca i32, align 4
  store ptr %0, ptr %3, align 8, !tbaa !3
  call void @llvm.lifetime.start.p0(i64 8, ptr %4) #4
  %7 = load ptr, ptr %3, align 8, !tbaa !3
  %8 = getelementptr inbounds nuw %struct.mbedtls_mps_reader, ptr %7, i32 0, i32 5
  %9 = load ptr, ptr %8, align 8, !tbaa !12
  store ptr %9, ptr %4, align 8, !tbaa !8
  call void @llvm.lifetime.start.p0(i64 8, ptr %5) #4
  %10 = load ptr, ptr %4, align 8, !tbaa !8
  %11 = icmp eq ptr %10, null
  br i1 %11, label %12, label %13

12:                                               ; preds = %1
  store i64 0, ptr %2, align 8
  store i32 1, ptr %6, align 4
  br label %18

13:                                               ; preds = %1
  %14 = load ptr, ptr %3, align 8, !tbaa !3
  %15 = getelementptr inbounds nuw %struct.mbedtls_mps_reader, ptr %14, i32 0, i32 8
  %16 = load i64, ptr %15, align 8, !tbaa !16
  store i64 %16, ptr %5, align 8, !tbaa !10
  %17 = load i64, ptr %5, align 8, !tbaa !10
  store i64 %17, ptr %2, align 8
  store i32 1, ptr %6, align 4
  br label %18

18:                                               ; preds = %13, %12
  call void @llvm.lifetime.end.p0(i64 8, ptr %5) #4
  call void @llvm.lifetime.end.p0(i64 8, ptr %4) #4
  %19 = load i64, ptr %2, align 8
  ret i64 %19
}

; Function Attrs: inlinehint nounwind uwtable
define internal i32 @mps_reader_is_consuming(ptr noundef %0) #1 {
  %2 = alloca ptr, align 8
  store ptr %0, ptr %2, align 8, !tbaa !3
  %3 = load ptr, ptr %2, align 8, !tbaa !3
  %4 = call i32 @mps_reader_is_producing(ptr noundef %3)
  %5 = icmp ne i32 %4, 0
  %6 = xor i1 %5, true
  %7 = zext i1 %6 to i32
  ret i32 %7
}

; Function Attrs: nounwind uwtable
define hidden i32 @mbedtls_mps_reader_reclaim(ptr noundef %0, ptr noundef %1) #0 {
  %3 = alloca i32, align 4
  %4 = alloca ptr, align 8
  %5 = alloca ptr, align 8
  %6 = alloca ptr, align 8
  %7 = alloca ptr, align 8
  %8 = alloca i64, align 8
  %9 = alloca i64, align 8
  %10 = alloca i64, align 8
  %11 = alloca i64, align 8
  %12 = alloca i64, align 8
  %13 = alloca i32, align 4
  %14 = alloca i32, align 4
  %15 = alloca i64, align 8
  %16 = alloca i64, align 8
  %17 = alloca i64, align 8
  %18 = alloca i64, align 8
  %19 = alloca i64, align 8
  %20 = alloca i64, align 8
  store ptr %0, ptr %4, align 8, !tbaa !3
  store ptr %1, ptr %5, align 8, !tbaa !28
  call void @llvm.lifetime.start.p0(i64 8, ptr %6) #4
  call void @llvm.lifetime.start.p0(i64 8, ptr %7) #4
  call void @llvm.lifetime.start.p0(i64 8, ptr %8) #4
  call void @llvm.lifetime.start.p0(i64 8, ptr %9) #4
  call void @llvm.lifetime.start.p0(i64 8, ptr %10) #4
  call void @llvm.lifetime.start.p0(i64 8, ptr %11) #4
  call void @llvm.lifetime.start.p0(i64 8, ptr %12) #4
  br label %21

21:                                               ; preds = %2
  br label %22

22:                                               ; preds = %21
  br label %23

23:                                               ; preds = %22
  %24 = load ptr, ptr %5, align 8, !tbaa !28
  %25 = icmp ne ptr %24, null
  br i1 %25, label %26, label %28

26:                                               ; preds = %23
  %27 = load ptr, ptr %5, align 8, !tbaa !28
  store i32 0, ptr %27, align 4, !tbaa !30
  br label %28

28:                                               ; preds = %26, %23
  br label %29

29:                                               ; preds = %28
  %30 = load ptr, ptr %4, align 8, !tbaa !3
  %31 = call i32 @mps_reader_is_consuming(ptr noundef %30)
  %32 = icmp ne i32 %31, 0
  br i1 %32, label %37, label %33

33:                                               ; preds = %29
  br label %34

34:                                               ; preds = %33
  br label %35

35:                                               ; preds = %34
  br label %36

36:                                               ; preds = %35
  store i32 -1, ptr %3, align 4
  store i32 1, ptr %13, align 4
  br label %204

37:                                               ; preds = %29
  br label %38

38:                                               ; preds = %37
  br label %39

39:                                               ; preds = %38
  %40 = load ptr, ptr %4, align 8, !tbaa !3
  %41 = getelementptr inbounds nuw %struct.mbedtls_mps_reader, ptr %40, i32 0, i32 0
  %42 = load ptr, ptr %41, align 8, !tbaa !18
  store ptr %42, ptr %6, align 8, !tbaa !8
  %43 = load ptr, ptr %4, align 8, !tbaa !3
  %44 = getelementptr inbounds nuw %struct.mbedtls_mps_reader, ptr %43, i32 0, i32 5
  %45 = load ptr, ptr %44, align 8, !tbaa !12
  store ptr %45, ptr %7, align 8, !tbaa !8
  %46 = load ptr, ptr %4, align 8, !tbaa !3
  %47 = getelementptr inbounds nuw %struct.mbedtls_mps_reader, ptr %46, i32 0, i32 4
  %48 = load i64, ptr %47, align 8, !tbaa !27
  store i64 %48, ptr %8, align 8, !tbaa !10
  %49 = load ptr, ptr %4, align 8, !tbaa !3
  %50 = getelementptr inbounds nuw %struct.mbedtls_mps_reader, ptr %49, i32 0, i32 2
  %51 = load i64, ptr %50, align 8, !tbaa !20
  store i64 %51, ptr %9, align 8, !tbaa !10
  %52 = load ptr, ptr %4, align 8, !tbaa !3
  %53 = getelementptr inbounds nuw %struct.mbedtls_mps_reader, ptr %52, i32 0, i32 1
  %54 = load i64, ptr %53, align 8, !tbaa !19
  store i64 %54, ptr %12, align 8, !tbaa !10
  %55 = load ptr, ptr %4, align 8, !tbaa !3
  %56 = call i64 @mps_reader_get_fragment_offset(ptr noundef %55)
  store i64 %56, ptr %11, align 8, !tbaa !10
  %57 = load i64, ptr %8, align 8, !tbaa !10
  %58 = icmp eq i64 %57, 0
  br i1 %58, label %59, label %87

59:                                               ; preds = %39
  br label %60

60:                                               ; preds = %59
  br label %61

61:                                               ; preds = %60
  br label %62

62:                                               ; preds = %61
  %63 = load i64, ptr %9, align 8, !tbaa !10
  %64 = load i64, ptr %11, align 8, !tbaa !10
  %65 = icmp ult i64 %63, %64
  br i1 %65, label %72, label %66

66:                                               ; preds = %62
  %67 = load i64, ptr %9, align 8, !tbaa !10
  %68 = load i64, ptr %11, align 8, !tbaa !10
  %69 = sub i64 %67, %68
  %70 = load i64, ptr %12, align 8, !tbaa !10
  %71 = icmp ult i64 %69, %70
  br i1 %71, label %72, label %79

72:                                               ; preds = %66, %62
  br label %73

73:                                               ; preds = %72
  br label %74

74:                                               ; preds = %73
  br label %75

75:                                               ; preds = %74
  %76 = load i64, ptr %9, align 8, !tbaa !10
  %77 = load ptr, ptr %4, align 8, !tbaa !3
  %78 = getelementptr inbounds nuw %struct.mbedtls_mps_reader, ptr %77, i32 0, i32 3
  store i64 %76, ptr %78, align 8, !tbaa !21
  store i32 -257, ptr %3, align 4
  store i32 1, ptr %13, align 4
  br label %204

79:                                               ; preds = %66
  %80 = load ptr, ptr %4, align 8, !tbaa !3
  %81 = getelementptr inbounds nuw %struct.mbedtls_mps_reader, ptr %80, i32 0, i32 7
  store i64 0, ptr %81, align 8, !tbaa !17
  %82 = load ptr, ptr %4, align 8, !tbaa !3
  %83 = getelementptr inbounds nuw %struct.mbedtls_mps_reader, ptr %82, i32 0, i32 8
  store i64 0, ptr %83, align 8, !tbaa !16
  br label %84

84:                                               ; preds = %79
  br label %85

85:                                               ; preds = %84
  br label %86

86:                                               ; preds = %85
  br label %190

87:                                               ; preds = %39
  call void @llvm.lifetime.start.p0(i64 4, ptr %14) #4
  call void @llvm.lifetime.start.p0(i64 8, ptr %15) #4
  call void @llvm.lifetime.start.p0(i64 8, ptr %16) #4
  call void @llvm.lifetime.start.p0(i64 8, ptr %17) #4
  call void @llvm.lifetime.start.p0(i64 8, ptr %18) #4
  call void @llvm.lifetime.start.p0(i64 8, ptr %19) #4
  call void @llvm.lifetime.start.p0(i64 8, ptr %20) #4
  br label %88

88:                                               ; preds = %87
  br label %89

89:                                               ; preds = %88
  br label %90

90:                                               ; preds = %89
  %91 = load ptr, ptr %7, align 8, !tbaa !8
  %92 = icmp eq ptr %91, null
  br i1 %92, label %93, label %97

93:                                               ; preds = %90
  br label %94

94:                                               ; preds = %93
  br label %95

95:                                               ; preds = %94
  br label %96

96:                                               ; preds = %95
  store i32 -262, ptr %3, align 4
  store i32 1, ptr %13, align 4
  br label %187

97:                                               ; preds = %90
  %98 = load ptr, ptr %4, align 8, !tbaa !3
  %99 = getelementptr inbounds nuw %struct.mbedtls_mps_reader, ptr %98, i32 0, i32 6
  %100 = load i64, ptr %99, align 8, !tbaa !14
  store i64 %100, ptr %10, align 8, !tbaa !10
  %101 = load i64, ptr %9, align 8, !tbaa !10
  %102 = load i64, ptr %11, align 8, !tbaa !10
  %103 = icmp ult i64 %101, %102
  br i1 %103, label %104, label %110

104:                                              ; preds = %97
  store i64 0, ptr %17, align 8, !tbaa !10
  %105 = load i64, ptr %12, align 8, !tbaa !10
  store i64 %105, ptr %18, align 8, !tbaa !10
  %106 = load i64, ptr %9, align 8, !tbaa !10
  store i64 %106, ptr %15, align 8, !tbaa !10
  %107 = load i64, ptr %11, align 8, !tbaa !10
  %108 = load i64, ptr %9, align 8, !tbaa !10
  %109 = sub i64 %107, %108
  store i64 %109, ptr %16, align 8, !tbaa !10
  br label %117

110:                                              ; preds = %97
  %111 = load i64, ptr %9, align 8, !tbaa !10
  %112 = load i64, ptr %11, align 8, !tbaa !10
  %113 = sub i64 %111, %112
  store i64 %113, ptr %17, align 8, !tbaa !10
  %114 = load i64, ptr %12, align 8, !tbaa !10
  %115 = load i64, ptr %17, align 8, !tbaa !10
  %116 = sub i64 %114, %115
  store i64 %116, ptr %18, align 8, !tbaa !10
  store i64 0, ptr %15, align 8, !tbaa !10
  store i64 0, ptr %16, align 8, !tbaa !10
  br label %117

117:                                              ; preds = %110, %104
  %118 = load i64, ptr %16, align 8, !tbaa !10
  %119 = load i64, ptr %18, align 8, !tbaa !10
  %120 = add i64 %118, %119
  store i64 %120, ptr %19, align 8, !tbaa !10
  %121 = load i64, ptr %19, align 8, !tbaa !10
  %122 = load i64, ptr %8, align 8, !tbaa !10
  %123 = add i64 %121, %122
  store i64 %123, ptr %20, align 8, !tbaa !10
  store i32 0, ptr %14, align 4, !tbaa !30
  %124 = load i64, ptr %19, align 8, !tbaa !10
  %125 = load i64, ptr %16, align 8, !tbaa !10
  %126 = icmp ult i64 %124, %125
  %127 = zext i1 %126 to i32
  %128 = load i32, ptr %14, align 4, !tbaa !30
  %129 = or i32 %128, %127
  store i32 %129, ptr %14, align 4, !tbaa !30
  %130 = load i64, ptr %20, align 8, !tbaa !10
  %131 = load i64, ptr %19, align 8, !tbaa !10
  %132 = icmp ult i64 %130, %131
  %133 = zext i1 %132 to i32
  %134 = load i32, ptr %14, align 4, !tbaa !30
  %135 = or i32 %134, %133
  store i32 %135, ptr %14, align 4, !tbaa !30
  %136 = load i32, ptr %14, align 4, !tbaa !30
  %137 = icmp ne i32 %136, 0
  br i1 %137, label %142, label %138

138:                                              ; preds = %117
  %139 = load i64, ptr %10, align 8, !tbaa !10
  %140 = load i64, ptr %20, align 8, !tbaa !10
  %141 = icmp ult i64 %139, %140
  br i1 %141, label %142, label %157

142:                                              ; preds = %138, %117
  %143 = load i64, ptr %9, align 8, !tbaa !10
  %144 = load ptr, ptr %4, align 8, !tbaa !3
  %145 = getelementptr inbounds nuw %struct.mbedtls_mps_reader, ptr %144, i32 0, i32 3
  store i64 %143, ptr %145, align 8, !tbaa !21
  %146 = load ptr, ptr %4, align 8, !tbaa !3
  %147 = getelementptr inbounds nuw %struct.mbedtls_mps_reader, ptr %146, i32 0, i32 4
  store i64 0, ptr %147, align 8, !tbaa !27
  br label %148

148:                                              ; preds = %142
  br label %149

149:                                              ; preds = %148
  br label %150

150:                                              ; preds = %149
  br label %151

151:                                              ; preds = %150
  br label %152

152:                                              ; preds = %151
  br label %153

153:                                              ; preds = %152
  br label %154

154:                                              ; preds = %153
  br label %155

155:                                              ; preds = %154
  br label %156

156:                                              ; preds = %155
  store i32 -263, ptr %3, align 4
  store i32 1, ptr %13, align 4
  br label %187

157:                                              ; preds = %138
  br label %158

158:                                              ; preds = %157
  br label %159

159:                                              ; preds = %158
  br label %160

160:                                              ; preds = %159
  br label %161

161:                                              ; preds = %160
  br label %162

162:                                              ; preds = %161
  br label %163

163:                                              ; preds = %162
  %164 = load ptr, ptr %7, align 8, !tbaa !8
  %165 = load ptr, ptr %7, align 8, !tbaa !8
  %166 = load i64, ptr %15, align 8, !tbaa !10
  %167 = getelementptr inbounds nuw i8, ptr %165, i64 %166
  %168 = load i64, ptr %16, align 8, !tbaa !10
  call void @llvm.memmove.p0.p0.i64(ptr align 1 %164, ptr align 1 %167, i64 %168, i1 false)
  %169 = load ptr, ptr %7, align 8, !tbaa !8
  %170 = load i64, ptr %16, align 8, !tbaa !10
  %171 = getelementptr inbounds nuw i8, ptr %169, i64 %170
  %172 = load ptr, ptr %6, align 8, !tbaa !8
  %173 = load i64, ptr %17, align 8, !tbaa !10
  %174 = getelementptr inbounds nuw i8, ptr %172, i64 %173
  %175 = load i64, ptr %18, align 8, !tbaa !10
  call void @llvm.memcpy.p0.p0.i64(ptr align 1 %171, ptr align 1 %174, i64 %175, i1 false)
  %176 = load i64, ptr %19, align 8, !tbaa !10
  %177 = load ptr, ptr %4, align 8, !tbaa !3
  %178 = getelementptr inbounds nuw %struct.mbedtls_mps_reader, ptr %177, i32 0, i32 7
  store i64 %176, ptr %178, align 8, !tbaa !17
  %179 = load i64, ptr %8, align 8, !tbaa !10
  %180 = load ptr, ptr %4, align 8, !tbaa !3
  %181 = getelementptr inbounds nuw %struct.mbedtls_mps_reader, ptr %180, i32 0, i32 8
  store i64 %179, ptr %181, align 8, !tbaa !16
  %182 = load ptr, ptr %5, align 8, !tbaa !28
  %183 = icmp ne ptr %182, null
  br i1 %183, label %184, label %186

184:                                              ; preds = %163
  %185 = load ptr, ptr %5, align 8, !tbaa !28
  store i32 1, ptr %185, align 4, !tbaa !30
  br label %186

186:                                              ; preds = %184, %163
  store i32 0, ptr %13, align 4
  br label %187

187:                                              ; preds = %186, %156, %96
  call void @llvm.lifetime.end.p0(i64 8, ptr %20) #4
  call void @llvm.lifetime.end.p0(i64 8, ptr %19) #4
  call void @llvm.lifetime.end.p0(i64 8, ptr %18) #4
  call void @llvm.lifetime.end.p0(i64 8, ptr %17) #4
  call void @llvm.lifetime.end.p0(i64 8, ptr %16) #4
  call void @llvm.lifetime.end.p0(i64 8, ptr %15) #4
  call void @llvm.lifetime.end.p0(i64 4, ptr %14) #4
  %188 = load i32, ptr %13, align 4
  switch i32 %188, label %204 [
    i32 0, label %189
  ]

189:                                              ; preds = %187
  br label %190

190:                                              ; preds = %189, %86
  %191 = load ptr, ptr %4, align 8, !tbaa !3
  %192 = getelementptr inbounds nuw %struct.mbedtls_mps_reader, ptr %191, i32 0, i32 0
  store ptr null, ptr %192, align 8, !tbaa !18
  %193 = load ptr, ptr %4, align 8, !tbaa !3
  %194 = getelementptr inbounds nuw %struct.mbedtls_mps_reader, ptr %193, i32 0, i32 1
  store i64 0, ptr %194, align 8, !tbaa !19
  %195 = load ptr, ptr %4, align 8, !tbaa !3
  %196 = getelementptr inbounds nuw %struct.mbedtls_mps_reader, ptr %195, i32 0, i32 2
  store i64 0, ptr %196, align 8, !tbaa !20
  %197 = load ptr, ptr %4, align 8, !tbaa !3
  %198 = getelementptr inbounds nuw %struct.mbedtls_mps_reader, ptr %197, i32 0, i32 3
  store i64 0, ptr %198, align 8, !tbaa !21
  %199 = load ptr, ptr %4, align 8, !tbaa !3
  %200 = getelementptr inbounds nuw %struct.mbedtls_mps_reader, ptr %199, i32 0, i32 4
  store i64 0, ptr %200, align 8, !tbaa !27
  br label %201

201:                                              ; preds = %190
  br label %202

202:                                              ; preds = %201
  br label %203

203:                                              ; preds = %202
  store i32 0, ptr %3, align 4
  store i32 1, ptr %13, align 4
  br label %204

204:                                              ; preds = %203, %187, %75, %36
  call void @llvm.lifetime.end.p0(i64 8, ptr %12) #4
  call void @llvm.lifetime.end.p0(i64 8, ptr %11) #4
  call void @llvm.lifetime.end.p0(i64 8, ptr %10) #4
  call void @llvm.lifetime.end.p0(i64 8, ptr %9) #4
  call void @llvm.lifetime.end.p0(i64 8, ptr %8) #4
  call void @llvm.lifetime.end.p0(i64 8, ptr %7) #4
  call void @llvm.lifetime.end.p0(i64 8, ptr %6) #4
  %205 = load i32, ptr %3, align 4
  ret i32 %205
}