; Function Attrs: mustprogress nofree norecurse nosync nounwind willreturn memory(readwrite, inaccessiblemem: none) uwtable
define hidden range(i32 -263, 1) i32 @mbedtls_mps_reader_reclaim(ptr noundef captures(none) %0, ptr noundef writeonly %1) local_unnamed_addr #1 {
  %.not = icmp eq ptr %1, null
  br i1 %.not, label %4, label %3

3:                                                ; preds = %2
  store i32 0, ptr %1, align 4, !tbaa !20
  br label %4

4:                                                ; preds = %2, %3
  %.val = load ptr, ptr %0, align 8, !tbaa !11
  %.not93 = icmp eq ptr %.val, null
  br i1 %.not93, label %51, label %5

5:                                                ; preds = %4
  %6 = getelementptr inbounds nuw i8, ptr %0, i64 40
  %7 = load ptr, ptr %6, align 8, !tbaa !3
  %8 = getelementptr inbounds nuw i8, ptr %0, i64 32
  %9 = load i64, ptr %8, align 8, !tbaa !18
  %10 = getelementptr inbounds nuw i8, ptr %0, i64 16
  %11 = load i64, ptr %10, align 8, !tbaa !19
  %12 = getelementptr inbounds nuw i8, ptr %0, i64 8
  %13 = load i64, ptr %12, align 8, !tbaa !14
  %14 = icmp eq ptr %7, null
  br i1 %14, label %mps_reader_get_fragment_offset.exit, label %mps_reader_get_fragment_offset.exit.thread

mps_reader_get_fragment_offset.exit:              ; preds = %5
  %15 = icmp eq i64 %9, 0
  br i1 %15, label %19, label %51

mps_reader_get_fragment_offset.exit.thread:       ; preds = %5
  %16 = getelementptr inbounds nuw i8, ptr %0, i64 64
  %17 = load i64, ptr %16, align 8, !tbaa !12
  %18 = icmp eq i64 %9, 0
  br i1 %18, label %19, label %27

19:                                               ; preds = %mps_reader_get_fragment_offset.exit.thread, %mps_reader_get_fragment_offset.exit
  %.0.i86 = phi i64 [ %17, %mps_reader_get_fragment_offset.exit.thread ], [ 0, %mps_reader_get_fragment_offset.exit ]
  %20 = icmp ult i64 %11, %.0.i86
  %21 = sub nuw i64 %11, %.0.i86
  %22 = icmp ult i64 %21, %13
  %or.cond = select i1 %20, i1 true, i1 %22
  br i1 %or.cond, label %23, label %25

23:                                               ; preds = %19
  %24 = getelementptr inbounds nuw i8, ptr %0, i64 24
  store i64 %11, ptr %24, align 8, !tbaa !15
  br label %51

25:                                               ; preds = %19
  %26 = getelementptr inbounds nuw i8, ptr %0, i64 56
  tail call void @llvm.memset.p0.i64(ptr noundef nonnull align 8 dereferenceable(16) %26, i8 0, i64 16, i1 false)
  br label %.thread90

27:                                               ; preds = %mps_reader_get_fragment_offset.exit.thread
  %28 = getelementptr inbounds nuw i8, ptr %0, i64 48
  %29 = load i64, ptr %28, align 8, !tbaa !10
  %30 = icmp ult i64 %11, %17
  br i1 %30, label %31, label %33

31:                                               ; preds = %27
  %32 = sub nuw i64 %17, %11
  br label %36

33:                                               ; preds = %27
  %34 = sub nuw i64 %11, %17
  %35 = sub i64 %13, %34
  br label %36

36:                                               ; preds = %33, %31
  %.072 = phi i64 [ %11, %31 ], [ 0, %33 ]
  %.071 = phi i64 [ %32, %31 ], [ 0, %33 ]
  %.070 = phi i64 [ 0, %31 ], [ %34, %33 ]
  %.069 = phi i64 [ %13, %31 ], [ %35, %33 ]
  %37 = add i64 %.069, %.071
  %38 = add i64 %37, %9
  %39 = icmp ult i64 %37, %.071
  %40 = icmp ult i64 %38, %37
  %41 = or i1 %39, %40
  %42 = icmp ult i64 %29, %38
  %or.cond84 = select i1 %41, i1 true, i1 %42
  br i1 %or.cond84, label %43, label %45

43:                                               ; preds = %36
  %44 = getelementptr inbounds nuw i8, ptr %0, i64 24
  store i64 %11, ptr %44, align 8, !tbaa !15
  store i64 0, ptr %8, align 8, !tbaa !18
  br label %51

45:                                               ; preds = %36
  %46 = getelementptr inbounds nuw i8, ptr %7, i64 %.072
  tail call void @llvm.memmove.p0.p0.i64(ptr nonnull align 1 %7, ptr nonnull align 1 %46, i64 %.071, i1 false)
  %47 = getelementptr inbounds nuw i8, ptr %7, i64 %.071
  %48 = getelementptr inbounds nuw i8, ptr %.val, i64 %.070
  tail call void @llvm.memcpy.p0.p0.i64(ptr nonnull align 1 %47, ptr nonnull align 1 %48, i64 %.069, i1 false)
  %49 = getelementptr inbounds nuw i8, ptr %0, i64 56
  store i64 %37, ptr %49, align 8, !tbaa !13
  store i64 %9, ptr %16, align 8, !tbaa !12
  br i1 %.not, label %.thread90, label %50

50:                                               ; preds = %45
  store i32 1, ptr %1, align 4, !tbaa !20
  br label %.thread90

.thread90:                                        ; preds = %45, %50, %25
  tail call void @llvm.memset.p0.i64(ptr noundef nonnull align 8 dereferenceable(40) %0, i8 0, i64 40, i1 false)
  br label %51

51:                                               ; preds = %43, %mps_reader_get_fragment_offset.exit, %4, %.thread90, %23
  %.0 = phi i32 [ -257, %23 ], [ 0, %.thread90 ], [ -1, %4 ], [ -263, %43 ], [ -262, %mps_reader_get_fragment_offset.exit ]
  ret i32 %.0
}